target datalayout = "e-m:e-p270:32:32-p271:32:32-p272:64:64-i64:64-i128:128-f80:128-n8:16:32:64-S128"
target triple = "x86_64-pc-linux-gnu"

%struct.__va_list_tag = type { i32, i32, ptr, ptr }

@.str.1 = private unnamed_addr constant [18 x i8] c"Failure, exiting\0A\00", align 1
@executeQueryOrDie.query = internal global [8192 x i8] zeroinitializer, align 16
@.str.5 = private unnamed_addr constant [14 x i8] c"executing: %s\00", align 1
@.str.6 = private unnamed_addr constant [25 x i8] c"SQL command failed\0A%s\0A%s\00", align 1

; Function Attrs: nounwind uwtable
define dso_local ptr @executeQueryOrDie(ptr noundef %0, ptr noundef %1, ...) #0 {
  %3 = alloca ptr, align 8
  %4 = alloca ptr, align 8
  %5 = alloca [1 x %struct.__va_list_tag], align 16
  %6 = alloca ptr, align 8
  %7 = alloca i32, align 4
  store ptr %0, ptr %3, align 8
  store ptr %1, ptr %4, align 8
  call void @llvm.lifetime.start.p0(i64 24, ptr %5) #9
  call void @llvm.lifetime.start.p0(i64 8, ptr %6) #9
  call void @llvm.lifetime.start.p0(i64 4, ptr %7) #9
  %8 = getelementptr inbounds [1 x %struct.__va_list_tag], ptr %5, i64 0, i64 0
  call void @llvm.va_start.p0(ptr %8)
  %9 = load ptr, ptr %4, align 8
  %10 = getelementptr inbounds [1 x %struct.__va_list_tag], ptr %5, i64 0, i64 0
  %11 = call i32 @pg_vsnprintf(ptr noundef @executeQueryOrDie.query, i64 noundef 8192, ptr noundef %9, ptr noundef %10)
  %12 = getelementptr inbounds [1 x %struct.__va_list_tag], ptr %5, i64 0, i64 0
  call void @llvm.va_end.p0(ptr %12)
  call void (i32, ptr, ...) @pg_log(i32 noundef 0, ptr noundef @.str.5, ptr noundef @executeQueryOrDie.query)
  %13 = load ptr, ptr %3, align 8
  %14 = call ptr @PQexec(ptr noundef %13, ptr noundef @executeQueryOrDie.query)
  store ptr %14, ptr %6, align 8
  %15 = load ptr, ptr %6, align 8
  %16 = call i32 @PQresultStatus(ptr noundef %15)
  store i32 %16, ptr %7, align 4
  %17 = load i32, ptr %7, align 4
  %18 = icmp ne i32 %17, 2
  br i1 %18, label %19, label %28

19:                                               ; preds = %2
  %20 = load i32, ptr %7, align 4
  %21 = icmp ne i32 %20, 1
  br i1 %21, label %22, label %28

22:                                               ; preds = %19
  %23 = load ptr, ptr %3, align 8
  %24 = call ptr @PQerrorMessage(ptr noundef %23)
  call void (i32, ptr, ...) @pg_log(i32 noundef 3, ptr noundef @.str.6, ptr noundef @executeQueryOrDie.query, ptr noundef %24)
  %25 = load ptr, ptr %6, align 8
  call void @PQclear(ptr noundef %25)
  %26 = load ptr, ptr %3, align 8
  call void @PQfinish(ptr noundef %26)
  %27 = call i32 (ptr, ...) @pg_printf(ptr noundef @.str.1)
  call void @exit(i32 noundef 1) #10
  unreachable

28:                                               ; preds = %19, %2
  %29 = load ptr, ptr %6, align 8
  call void @llvm.lifetime.end.p0(i64 4, ptr %7) #9
  call void @llvm.lifetime.end.p0(i64 8, ptr %6) #9
  call void @llvm.lifetime.end.p0(i64 24, ptr %5) #9
  ret ptr %29
}