; Function Attrs: nounwind uwtable
define dso_local noundef ptr @executeQueryOrDie(ptr noundef %0, ptr noundef %1, ...) local_unnamed_addr #0 {
  %3 = alloca [1 x %struct.__va_list_tag], align 16
  call void @llvm.lifetime.start.p0(i64 24, ptr nonnull %3) #10
  call void @llvm.va_start.p0(ptr nonnull %3)
  %4 = call i32 @pg_vsnprintf(ptr noundef nonnull @executeQueryOrDie.query, i64 noundef 8192, ptr noundef %1, ptr noundef nonnull %3) #10
  call void @llvm.va_end.p0(ptr nonnull %3)
  call void (i32, ptr, ...) @pg_log(i32 noundef 0, ptr noundef nonnull @.str.5, ptr noundef nonnull @executeQueryOrDie.query) #10
  %5 = call ptr @PQexec(ptr noundef %0, ptr noundef nonnull @executeQueryOrDie.query) #10
  %6 = call i32 @PQresultStatus(ptr noundef %5) #10
  %7 = add i32 %6, -3
  %or.cond = icmp ult i32 %7, -2
  br i1 %or.cond, label %8, label %11

8:                                                ; preds = %2
  %9 = call ptr @PQerrorMessage(ptr noundef %0) #10
  call void (i32, ptr, ...) @pg_log(i32 noundef 3, ptr noundef nonnull @.str.6, ptr noundef nonnull @executeQueryOrDie.query, ptr noundef %9) #10
  call void @PQclear(ptr noundef %5) #10
  call void @PQfinish(ptr noundef %0) #10
  %10 = call i32 (ptr, ...) @pg_printf(ptr noundef nonnull @.str.1) #10
  call void @exit(i32 noundef 1) #11
  unreachable

11:                                               ; preds = %2
  call void @llvm.lifetime.end.p0(i64 24, ptr nonnull %3) #10
  ret ptr %5
}